target datalayout = "e-m:e-p270:32:32-p271:32:32-p272:64:64-i64:64-i128:128-f80:128-n8:16:32:64-S128"
target triple = "x86_64-pc-linux-gnu"

%"struct.pkpy::PyObject" = type { ptr, i8, i8, %"struct.pkpy::Type", ptr }
%"struct.pkpy::Type" = type { i16 }
%"struct.pkpy::NameDictImpl" = type { %union.anon }
%union.anon = type { %"struct.pkpy::SmallNameDict" }
%"struct.pkpy::SmallNameDict" = type { i8, i16, [8 x %"struct.pkpy::StrName"], [8 x ptr] }
%"struct.pkpy::StrName" = type { i16 }
%"struct.pkpy::LargeNameDict" = type { i8, float, i16, i16, i16, i16, ptr }

@_ZTVN4pkpy8PyObjectE = unnamed_addr constant { [5 x ptr] } { [5 x ptr] [ptr null, ptr @_ZTIN4pkpy8PyObjectE, ptr @__cxa_pure_virtual, ptr @_ZN4pkpy8PyObjectD1Ev, ptr @_ZN4pkpy8PyObjectD0Ev] }, align 8

; Function Attrs: noreturn nounwind uwtable
define linkonce_odr hidden void @__clang_call_terminate(ptr noundef %0) #8 comdat {
  %2 = call ptr @__cxa_begin_catch(ptr %0) #3
  call void @_ZSt9terminatev() #12
  unreachable
}

; Function Attrs: mustprogress nounwind uwtable
define linkonce_odr void @_ZN4pkpy13LargeNameDictIPNS_8PyObjectEED2Ev(ptr noundef nonnull align 8 dereferenceable(24) %0) unnamed_addr #4 comdat align 2 {
  %2 = alloca ptr, align 8
  store ptr %0, ptr %2, align 8
  %3 = load ptr, ptr %2, align 8
  %4 = getelementptr inbounds %"struct.pkpy::LargeNameDict", ptr %3, i32 0, i32 6
  %5 = load ptr, ptr %4, align 8
  call void @free(ptr noundef %5) #3
  ret void
}

; Function Attrs: mustprogress nounwind uwtable
define linkonce_odr noundef zeroext i1 @_ZNK4pkpy12NameDictImplIPNS_8PyObjectEE8is_smallEv(ptr noundef nonnull align 8 dereferenceable(88) %0) #4 comdat align 2 {
  %2 = alloca ptr, align 8
  %3 = alloca ptr, align 8
  store ptr %0, ptr %2, align 8
  %4 = load ptr, ptr %2, align 8
  store ptr %4, ptr %3, align 8
  %5 = load ptr, ptr %3, align 8
  %6 = load i8, ptr %5, align 1
  %7 = trunc i8 %6 to i1
  ret i1 %7
}

; Function Attrs: mustprogress nounwind uwtable
define linkonce_odr void @_ZN4pkpy12NameDictImplIPNS_8PyObjectEED2Ev(ptr noundef nonnull align 8 dereferenceable(88) %0) unnamed_addr #4 comdat align 2 personality ptr @__gxx_personality_v0 {
  %2 = alloca ptr, align 8
  store ptr %0, ptr %2, align 8
  %3 = load ptr, ptr %2, align 8
  %4 = invoke noundef zeroext i1 @_ZNK4pkpy12NameDictImplIPNS_8PyObjectEE8is_smallEv(ptr noundef nonnull align 8 dereferenceable(88) %3)
          to label %5 unwind label %9

5:                                                ; preds = %1
  br i1 %4, label %8, label %6

6:                                                ; preds = %5
  %7 = getelementptr inbounds %"struct.pkpy::NameDictImpl", ptr %3, i32 0, i32 0
  call void @_ZN4pkpy13LargeNameDictIPNS_8PyObjectEED2Ev(ptr noundef nonnull align 8 dereferenceable(24) %7) #3
  br label %8

8:                                                ; preds = %6, %5
  ret void

9:                                                ; preds = %1
  %10 = landingpad { ptr, i32 }
          catch ptr null
  %11 = extractvalue { ptr, i32 } %10, 0
  call void @__clang_call_terminate(ptr %11) #12
  unreachable
}

; Function Attrs: mustprogress nounwind uwtable
define void @_ZN4pkpy8PyObjectD2Ev(ptr noundef nonnull align 8 dereferenceable(24) %0) unnamed_addr #4 align 2 {
  %2 = alloca ptr, align 8
  store ptr %0, ptr %2, align 8
  %3 = load ptr, ptr %2, align 8
  store ptr getelementptr inbounds inrange(-16, 24) ({ [5 x ptr] }, ptr @_ZTVN4pkpy8PyObjectE, i32 0, i32 0, i32 2), ptr %3, align 8
  %4 = getelementptr inbounds %"struct.pkpy::PyObject", ptr %3, i32 0, i32 4
  %5 = load ptr, ptr %4, align 8
  %6 = icmp eq ptr %5, null
  br i1 %6, label %7, label %8

7:                                                ; preds = %1
  br label %13

8:                                                ; preds = %1
  %9 = getelementptr inbounds %"struct.pkpy::PyObject", ptr %3, i32 0, i32 4
  %10 = load ptr, ptr %9, align 8
  call void @_ZN4pkpy12NameDictImplIPNS_8PyObjectEED2Ev(ptr noundef nonnull align 8 dereferenceable(88) %10) #3
  %11 = getelementptr inbounds %"struct.pkpy::PyObject", ptr %3, i32 0, i32 4
  %12 = load ptr, ptr %11, align 8
  call void @_ZN4pkpy15pool128_deallocEPv(ptr noundef %12) #3
  br label %13

13:                                               ; preds = %8, %7
  ret void
}