; Function Attrs: mustprogress nounwind uwtable
define void @_ZN4pkpy8PyObjectD2Ev(ptr nocapture noundef nonnull align 8 dereferenceable(24) %0) unnamed_addr #7 align 2 personality ptr @__gxx_personality_v0 {
  store ptr getelementptr inbounds inrange(-16, 24) (i8, ptr @_ZTVN4pkpy8PyObjectE, i64 16), ptr %0, align 8
  %2 = getelementptr inbounds i8, ptr %0, i64 16
  %3 = load ptr, ptr %2, align 8
  %4 = icmp eq ptr %3, null
  br i1 %4, label %12, label %5

5:                                                ; preds = %1
  %6 = load i8, ptr %3, align 1
  %7 = trunc i8 %6 to i1
  br i1 %7, label %_ZN4pkpy12NameDictImplIPNS_8PyObjectEED2Ev.exit, label %8

8:                                                ; preds = %5
  %9 = getelementptr inbounds i8, ptr %3, i64 16
  %10 = load ptr, ptr %9, align 8
  tail call void @free(ptr noundef %10) #15
  %.pre = load ptr, ptr %2, align 8
  br label %_ZN4pkpy12NameDictImplIPNS_8PyObjectEED2Ev.exit

_ZN4pkpy12NameDictImplIPNS_8PyObjectEED2Ev.exit:  ; preds = %5, %8
  %11 = phi ptr [ %3, %5 ], [ %.pre, %8 ]
  tail call void @_ZN4pkpy15pool128_deallocEPv(ptr noundef %11) #15
  br label %12

12:                                               ; preds = %1, %_ZN4pkpy12NameDictImplIPNS_8PyObjectEED2Ev.exit
  ret void
}